; ModuleID = 'source-C-CXX/25/674.c'
source_filename = "source-C-CXX/25/674.c"
target datalayout = "e-m:e-p270:32:32-p271:32:32-p272:64:64-i64:64-f80:128-n8:16:32:64-S128"
target triple = "x86_64-pc-linux-gnu"

; Function Attrs: nounwind sspstrong uwtable
define dso_local i32 @main() local_unnamed_addr #0 {
  %1 = alloca [200 x i8], align 16
  %2 = alloca [200 x i8], align 16
  %3 = getelementptr inbounds [200 x i8], [200 x i8]* %1, i64 0, i64 0
  call void @llvm.lifetime.start.p0i8(i64 200, i8* nonnull %3) #5
  %4 = getelementptr inbounds [200 x i8], [200 x i8]* %2, i64 0, i64 0
  call void @llvm.lifetime.start.p0i8(i64 200, i8* nonnull %4) #5
  %5 = call i32 (i8*, ...) bitcast (i32 (...)* @gets to i32 (i8*, ...)*)(i8* nonnull %3) #5
  %6 = call i64 @strlen(i8* noundef nonnull %3) #6
  %7 = trunc i64 %6 to i32
  %8 = icmp sgt i32 %7, 0
  br i1 %8, label %9, label %45

9:                                                ; preds = %0
  %10 = and i64 %6, 4294967295
  br label %15

11:                                               ; preds = %32
  %12 = icmp sgt i32 %33, 0
  br i1 %12, label %13, label %45

13:                                               ; preds = %11
  %14 = zext i32 %33 to i64
  br label %37

15:                                               ; preds = %9, %32
  %16 = phi i64 [ 0, %9 ], [ %35, %32 ]
  %17 = phi i32 [ 0, %9 ], [ %34, %32 ]
  %18 = phi i32 [ 0, %9 ], [ %33, %32 ]
  %19 = getelementptr inbounds [200 x i8], [200 x i8]* %1, i64 0, i64 %16
  %20 = load i8, i8* %19, align 1, !tbaa !5
  %21 = icmp eq i8 %20, 32
  %22 = icmp eq i32 %17, 0
  %23 = select i1 %21, i1 %22, i1 false
  %24 = xor i1 %21, true
  %25 = or i1 %23, %24
  br i1 %25, label %26, label %32

26:                                               ; preds = %15
  %27 = zext i1 %23 to i32
  %28 = select i1 %23, i8 32, i8 %20
  %29 = add nsw i32 %18, 1
  %30 = sext i32 %18 to i64
  %31 = getelementptr inbounds [200 x i8], [200 x i8]* %2, i64 0, i64 %30
  store i8 %28, i8* %31, align 1, !tbaa !5
  br label %32

32:                                               ; preds = %15, %26
  %33 = phi i32 [ %29, %26 ], [ %18, %15 ]
  %34 = phi i32 [ %27, %26 ], [ %17, %15 ]
  %35 = add nuw nsw i64 %16, 1
  %36 = icmp eq i64 %35, %10
  br i1 %36, label %11, label %15, !llvm.loop !8

37:                                               ; preds = %13, %37
  %38 = phi i64 [ 0, %13 ], [ %43, %37 ]
  %39 = getelementptr inbounds [200 x i8], [200 x i8]* %2, i64 0, i64 %38
  %40 = load i8, i8* %39, align 1, !tbaa !5
  %41 = sext i8 %40 to i32
  %42 = call i32 @putchar(i32 %41)
  %43 = add nuw nsw i64 %38, 1
  %44 = icmp eq i64 %43, %14
  br i1 %44, label %45, label %37, !llvm.loop !10

45:                                               ; preds = %37, %0, %11
  call void @llvm.lifetime.end.p0i8(i64 200, i8* nonnull %4) #5
  call void @llvm.lifetime.end.p0i8(i64 200, i8* nonnull %3) #5
  ret i32 0
}

; Function Attrs: argmemonly mustprogress nofree nosync nounwind willreturn
declare void @llvm.lifetime.start.p0i8(i64 immarg, i8* nocapture) #1

declare i32 @gets(...) local_unnamed_addr #2

; Function Attrs: argmemonly mustprogress nofree nounwind readonly willreturn
declare i64 @strlen(i8* nocapture) local_unnamed_addr #3

; Function Attrs: argmemonly mustprogress nofree nosync nounwind willreturn
declare void @llvm.lifetime.end.p0i8(i64 immarg, i8* nocapture) #1

; Function Attrs: nofree nounwind
declare noundef i32 @putchar(i32 noundef) local_unnamed_addr #4


!llvm.module.flags = !{!0, !1, !2, !3}
!llvm.ident = !{!4}

!0 = !{i32 1, !"wchar_size", i32 4}
!1 = !{i32 7, !"PIC Level", i32 2}
!2 = !{i32 7, !"PIE Level", i32 2}
!3 = !{i32 7, !"uwtable", i32 1}
!4 = !{!"clang version 13.0.0"}
!5 = !{!6, !6, i64 0}
!6 = !{!"omnipotent char", !7, i64 0}
!7 = !{!"Simple C/C++ TBAA"}
!8 = distinct !{!8, !9}
!9 = !{!"llvm.loop.mustprogress"}
!10 = distinct !{!10, !9}
